mask    3FFFFFC
bl mask 48000001
b mask  48000000
bc mask FFFC

beq   41820000
bne   40820000
blt   41800000
ble   40810000
bgt   41810000
bge   40800000

offset 566C 

reuse
000021A8    cameraContaxDialogTaskId
000021AC    cameraContaxDialogRequest cameraContaxUnused

delete
    cameraSerialContaxMode
    cameraContaxCableOn
    cameraContaxCableOff

uint32 camSoftStartTime = 0;       // 000021A8   
uint32 shutterMode = 0;            // 000021AC 

camSoftStartTime:21a8 shutterMode:21ac shutterModeMask:147a0 camShutterModeStr:1478c 
cameraMamiyaMainMenu:014958
----------------------------------------------------------------------
data patches

noDigitalBody-->showLegacyMenu:2229
0001C198-566C=16B2C
        73 68 6F 77 4C 65 67 61 63 79 4D 65 6E 75 00 00

000196B8-566C=1404C
        AA 00 00 00 00 00 00 FA 00 00 00 0A 00 01 9F 38
        A7 00 00 00 00 00 00 C8 00 00 00 0A 00 01 B9 E8
        A6 00 00 00 00 00 00 C8 00 00 00 0A 00 01 9F 3C
        A0 00 00 00 00 00 00 96 00 00 00 0A 00 01 B9 EC
        A2 00 00 00 00 00 00 82 00 00 00 0A 00 01 9F 40
        9F 00 00 00 00 00 00 64 00 00 00 0A 00 01 B9 F0
        9E 00 00 00 00 00 00 64 00 00 00 0A 00 01 9F 44
        
00019AF8-566C=1448C
        F8 00 00 00 00 00 03 E7 00 00 00 0A 00 01 C8 50
        FF 00 00 00 00 00 00 00 00 00 00 00 00 01 B8 08
        
00019F38-566C=148CC
        32 35 22 00 32 30 22 00  31 33 22 00 31 30 22 00
        
mamiyaProperties: 
000144C0-566C=EE54
        00014710 0001471C 000021AC 00012544
        00000004 00600502 00000000 00000003
        00000000 0001478C 00000000 00000000

14460-566C=EDF4
        000124F0 00012504 000124BC 00012544
        00000004 00600502 00000000 00000014
        00000000 00014550 00000000 00000000
        00012518 00012528 000124C0 00012544 
        00000004 00010502 00000000 0000000A
        00000000 00012588 00000000 00000000
        00014710 0001471C 000021AC 00012544
        00000004 00600502 00000000 00000003
        00000000 0001478C 00000000 00000000

00014710-566C=F0A4
        73 68 75 74 74 65 72 4D 6F 64 65 00 53 68 75 74
        74 65 72 20 4F 70 65 72 61 74 69 6E 67 20 4D 6F
        64 65 00 00 4C 65 67 61 63 79 20 28 36 34 35 20
        41 46 2F 41 46 44 29 00 44 69 67 69 74 61 6C 20
        4C 6F 6E 67 20 4C 61 74 65 6E 63 79 00 00 00 00
        44 69 67 69 74 61 6C 20 43 6F 6D 62 69 6E 65 64
        00 00 00 00 44 69 67 69 74 61 6C 20 53 68 6F 72
        74 20 4C 61 74 65 6E 63 79 00 00 00 00 01 47 34
        00 01 47 48 00 01 47 60 00 01 47 74 00 00 00 00
        00 50 20 20 00 00 00 00 00 00 00 00 00 00 00 00
        4D 61 6E 75 61 6C 20 4C 65 6E 73 20 44 61 74 61
        07 00 00 00 53 68 75 74 74 65 72 20 4F 70 65 72
        61 74 69 6E 67 20 4D 6F 64 65 07 00 00 00 00 00
        00 00 00 00

000147B0:

000058E4-566C=278
        00 00 00 00 00 00 00 00 00 00 00 00 00 00 00 00
        00 00 00 00 00 00 00 00 00 00 00 00

----------------------------------------------------------------------
camera_Start patch:
000176F4-566C=12088
000176F4 60 00 00 00                 nop
000176F8 60 00 00 00                 nop

----------------------------------------------------------------------
cameraDataComplete patch
00010644-566C=AFD8
00010644 48 00 43 BC                 b         loc_14A00

00014A00-566C=F394
00014A00 89 83 00 00                 lbz       r12, 0(r3)
00014A04 2C 0C 00 F8                 cmpwi     r12, 0xF8
00014A08 40 82 00 2C                 bne       loc_14A34
00014A0C 81 80 20 A4                 lwz       r12, shutterCloseTime
00014A10 81 60 20 A0                 lwz       r11, shutterOpenTime
00014A14 7D 8B 60 50                 subf      r12, r11, r12
00014A18 2C 0C 00 00                 cmpwi     r12, 0
00014A1C 41 82 00 18                 beq       loc_14A34
00014A20 3C 80 00 01                 lis       r4, 0x186A0@h
00014A24 60 84 86 A0                 ori       r4, r4, 0x186A0@l
00014A28 7C 6C 23 96                 divwu     r3, r12, r4
00014A2C 38 80 00 0A                 li        r4, 10
00014A30 4B FF BC 18                 b         loc_10648
00014A34 48 00 40 1D loc_14A34:      bl        cameraRationalSetting    ; 00018A50
00014A38 4B FF BC 10                 b         loc_10648


----------------------------------------------------------------------
shutterConvert patch
19CE8-566C=1467C
    F8
----------------------------------------------------------------------
cameraDisable patch
000183E4-566C=12D78
000183E4 94 21 FF F8                 stwu      r1, -8(r1)
000183E8 7C 08 02 A6                 mflr      r0
000183EC 90 01 00 0C                 stw       r0, 8+arg_4(r1)
000183F0 89 80 21 F1                 lbz       r12, camDisable
000183F4 2C 0C 00 00                 cmpwi     r12, 0
000183F8 40 82 00 3C                 bne       loc_18434
000183FC 39 80 00 01                 li        r12, 1
00018400 99 80 21 F1                 stb       r12, camDisable
00018404 81 60 21 D4                 lwz       r11, dialogOpenTime
00018408 2C 0B 00 00                 cmpwi     r11, 0
0001840C 40 82 00 28                 bne       loc_18434
00018410 48 07 EB 29                 bl        systemChecksComplete ; 96F38
00018414 2C 03 00 00                 cmpwi     r3, 0
00018418 41 82 00 1C                 beq       loc_18434
0001841C 80 60 21 D8                 lwz       r3, disableMessage
00018420 48 04 92 71                 bl        imageNotOkDialogOpen ; 61690
00018424 2C 03 00 00                 cmpwi     r3, 0
00018428 41 82 00 0C                 beq       loc_18434
0001842C 48 08 12 F1                 bl        timeUsec ; 9971C
00018430 90 60 21 D4                 stw       r3, dialogOpenTime
00018434 80 01 00 0C loc_18434:      lwz       r0, 8+arg_4(r1)
00018438 7C 08 03 A6                 mtlr      r0
0001843C 38 21 00 08                 addi      r1, r1, 8
00018440 4E 80 00 20                 blr

----------------------------------------------------------------------
cameraSoftPress patch
00012A00-566C=D394
00012A00 48 08 6D 1D                 bl        timeUsec ; 9971C
00012A04 90 60 21 A8                 stw       r3, camSoftStartTime
00012A08 80 01 00 0C                 lwz       r0, 8+arg_4(r1)
00012A0C 7C 08 03 A6                 mtlr      r0
00012A10 38 21 00 08                 addi      r1, r1, 8
00012A14 4E 80 00 20                 blr

----------------------------------------------------------------------
cameraTask
00016D8C-566C=11720
00016D8C 4B FF CD 6D                 bl        cameraTaskMamiya

----------------------------------------------------------------------
cameraStart patch
00017744-566C=120D8
00017744 48 00 00 58                 b         loc_1779C

----------------------------------------------------------------------
fileWriteExposureInfoTags patch
00042F14-566C=3D8A8
00042F14 4B FD 1A AC                 b         loc_149C0

000149C0-566C=F354
000149C0 38 FE 29 78                 addi      r7, r30, 0x2978
000149C4 80 87 00 04                 lwz       r4, 4(r7)
000149C8 2C 04 00 00                 cmpwi     r4, 0
000149CC 41 82 00 2C                 beq       loc_149F8
000149D0 80 67 00 00                 lwz       r3, 0(r7)
000149D4 1C 63 00 55                 mulli     r3, r3, 0x55
000149D8 1C 84 00 64                 mulli     r4, r4, 0x64
000149DC 7C E3 23 96                 divwu     r7, r3, r4
000149E0 38 7F 00 00                 addi      r3, r31, 0
000149E4 3C 80 00 00                 lis       r4, off_A405@h # FocalLengthIn35mmFilm
000149E8 60 84 A4 05                 ori       r4, r4, off_A405@l
000149EC 38 A0 00 03                 li        r5, 3
000149F0 38 C0 00 01                 li        r6, 1
000149F4 48 08 3A 65                 bl        tiffEntryWrite ; 000098458
000149F8 38 FE 29 78 loc_149F8:      addi      r7, r30, 0x2978
000149FC 48 02 E5 1C                 b         loc_42F18


----------------------------------------------------------------------

serialMainMenu patch
000907AC-566C=8B140
000907AC 88 60 22 29                 lbz       r3, showLegacyMenu
000907B0 2C 03 00 00                 cmpwi     r3, 0
000907B4 41 82 00 50                 beq       loc_90804
000907B8 38 60 00 02                 li        r3, 2
000907BC 48 00 B7 59                 bl        unitFeatureUnlocked 
000907C0 2C 03 00 00                 cmpwi     r3, 0
000907C4 41 82 00 40                 beq       loc_90804
000907C8 3B E0 00 00                 li        r31, 0
000907CC 3B C0 6D 54                 li        r30, serialScanModeList
000907D0 3F A0 00 09                 lis       r29, serialScanShootScreen@h
000907D4 3B BD 01 BC                 addi      r29, r29, serialScanShootScreen@l
000907D8 80 BE 00 00 loc_907D8:      lwz       r5, 0(r30)
000907DC 38 7F 00 00                 addi      r3, r31, 0
000907E0 38 80 00 00                 li        r4, 0
000907E4 38 C0 00 01                 li        r6, 1
000907E8 38 FD 00 00                 addi      r7, r29, 0
000907EC 39 00 00 00                 li        r8, 0
000907F0 4B FD F4 25                 bl        menuItem 
000907F4 3B DE 00 1C                 addi      r30, r30, 0x1C
000907F8 3B FF 00 01                 addi      r31, r31, 1
000907FC 28 1F 00 02                 cmplwi    r31, 2
00090800 41 80 FF D8                 blt       loc_907D8
00090804 83 A1 00 0C loc_90804:      lwz       r29, 0x18+var_C(r1)
00090808 83 C1 00 10                 lwz       r30, 0x18+var_8(r1)
0009080C 83 E1 00 14                 lwz       r31, 0x18+var_4(r1)
00090810 80 01 00 1C                 lwz       r0, 0x18+arg_4(r1)
00090814 7C 08 03 A6                 mtlr      r0
00090818 38 21 00 18                 addi      r1, r1, 0x18
0009081C 4E 80 00 20                 blr

----------------------------------------------------------------------
cameraMamiyaMainMenu
00014958-566C=F2EC
00014958 94 21 FF F8                 stwu      r1, 
0001495C 7C 08 02 A6                 mflr      r0
00014960 90 01 00 0C                 stw       r0, 8+arg_4(r1)
00014964 38 60 21 AC                 li        r3, shutterMode
00014968 3C A0 00 01                 lis       r5, 147C4@h # "Shutter Operating Mode\a"
0001496C 60 A5 47 C4                 ori       r5, r5, 147C4@l
00014970 3C E0 00 08                 lis       r7, ((propertyScreen+0x10000)@h)
00014974 38 E7 F1 08                 addi      r7, r7, propertyScreen@l
00014978 38 80 00 00                 li        r4, 0
0001497C 38 C0 00 01                 li        r6, 1
00014980 39 00 00 00                 li        r8, 0
00014984 48 05 B2 91                 bl        menuItem 
00014988 3C 60 00 01                 lis       r3, manualLensSetting@h
0001498C 60 63 24 BC                 ori       r3, r3, manualLensSetting@l
00014990 3C A0 00 01                 lis       r5, 147B0@h # "Manual Lens Data\a"
00014994 60 A5 47 B0                 ori       r5, r5, 147B0@l
00014998 3C E0 00 08                 lis       r7, ((propertyScreen+0x10000)@h)
0001499C 38 E7 F1 08                 addi      r7, r7, propertyScreen@l
000149A0 38 80 00 00                 li        r4, 0
000149A4 38 C0 00 01                 li        r6, 1
000149A8 39 00 00 00                 li        r8, 0
000149AC 48 05 B2 69                 bl        menuItem 
000149B0 80 01 00 0C                 lwz       r0, 8+arg_4(r1)
000149B4 7C 08 03 A6                 mtlr      r0
000149B8 38 21 00 08                 addi      r1, r1, 8
000149BC 4E 80 00 20                 blr
